; Function Attrs: mustprogress nofree norecurse nosync nounwind willreturn memory(argmem: readwrite) uwtable
define internal noundef zeroext i1 @_ZNSt17_Function_handlerIFSt8optionalINSt7__cxx1112basic_stringIcSt11char_traitsIcESaIcEEEEN32pxrInternal_v0_24__pxrReserved__13SdfListOpTypeERKS6_EZNS8_L32_ComposeSiteListOpWithSourceInfoIS6_EEvRKNS8_8TfRefPtrINS8_13PcpLayerStackEEERKNS8_7SdfPathERKNS8_7TfTokenEPSt6vectorIT_SaISQ_EEPSP_INS8_10PcpArcInfoESaISU_EEEUlS9_SB_E_E10_M_managerERSt9_Any_dataRKS10_St18_Manager_operation(ptr noundef nonnull writeonly align 8 captures(none) dereferenceable(16) %0, ptr noundef nonnull align 8 dereferenceable(16) %1, i32 noundef %2) #16 align 2 personality ptr @__gxx_personality_v0 {
  switch i32 %2, label %_ZNSt14_Function_base13_Base_managerIZN32pxrInternal_v0_24__pxrReserved__L32_ComposeSiteListOpWithSourceInfoINSt7__cxx1112basic_stringIcSt11char_traitsIcESaIcEEEEEvRKNS1_8TfRefPtrINS1_13PcpLayerStackEEERKNS1_7SdfPathERKNS1_7TfTokenEPSt6vectorIT_SaISL_EEPSK_INS1_10PcpArcInfoESaISP_EEEUlNS1_13SdfListOpTypeERKS8_E_E10_M_managerERSt9_Any_dataRKSY_St18_Manager_operation.exit [
    i32 0, label %4
    i32 1, label %5
    i32 2, label %6
  ]

4:                                                ; preds = %3
  store ptr @_ZTIZN32pxrInternal_v0_24__pxrReserved__L32_ComposeSiteListOpWithSourceInfoINSt7__cxx1112basic_stringIcSt11char_traitsIcESaIcEEEEEvRKNS_8TfRefPtrINS_13PcpLayerStackEEERKNS_7SdfPathERKNS_7TfTokenEPSt6vectorIT_SaISJ_EEPSI_INS_10PcpArcInfoESaISN_EEEUlNS_13SdfListOpTypeERKS6_E_, ptr %0, align 8
  br label %_ZNSt14_Function_base13_Base_managerIZN32pxrInternal_v0_24__pxrReserved__L32_ComposeSiteListOpWithSourceInfoINSt7__cxx1112basic_stringIcSt11char_traitsIcESaIcEEEEEvRKNS1_8TfRefPtrINS1_13PcpLayerStackEEERKNS1_7SdfPathERKNS1_7TfTokenEPSt6vectorIT_SaISL_EEPSK_INS1_10PcpArcInfoESaISP_EEEUlNS1_13SdfListOpTypeERKS8_E_E10_M_managerERSt9_Any_dataRKSY_St18_Manager_operation.exit

5:                                                ; preds = %3
  store ptr %1, ptr %0, align 8
  br label %_ZNSt14_Function_base13_Base_managerIZN32pxrInternal_v0_24__pxrReserved__L32_ComposeSiteListOpWithSourceInfoINSt7__cxx1112basic_stringIcSt11char_traitsIcESaIcEEEEEvRKNS1_8TfRefPtrINS1_13PcpLayerStackEEERKNS1_7SdfPathERKNS1_7TfTokenEPSt6vectorIT_SaISL_EEPSK_INS1_10PcpArcInfoESaISP_EEEUlNS1_13SdfListOpTypeERKS8_E_E10_M_managerERSt9_Any_dataRKSY_St18_Manager_operation.exit

6:                                                ; preds = %3
  tail call void @llvm.memcpy.p0.p0.i64(ptr noundef nonnull align 8 dereferenceable(16) %0, ptr noundef nonnull readonly align 8 dereferenceable(16) %1, i64 16, i1 false)
  br label %_ZNSt14_Function_base13_Base_managerIZN32pxrInternal_v0_24__pxrReserved__L32_ComposeSiteListOpWithSourceInfoINSt7__cxx1112basic_stringIcSt11char_traitsIcESaIcEEEEEvRKNS1_8TfRefPtrINS1_13PcpLayerStackEEERKNS1_7SdfPathERKNS1_7TfTokenEPSt6vectorIT_SaISL_EEPSK_INS1_10PcpArcInfoESaISP_EEEUlNS1_13SdfListOpTypeERKS8_E_E10_M_managerERSt9_Any_dataRKSY_St18_Manager_operation.exit

_ZNSt14_Function_base13_Base_managerIZN32pxrInternal_v0_24__pxrReserved__L32_ComposeSiteListOpWithSourceInfoINSt7__cxx1112basic_stringIcSt11char_traitsIcESaIcEEEEEvRKNS1_8TfRefPtrINS1_13PcpLayerStackEEERKNS1_7SdfPathERKNS1_7TfTokenEPSt6vectorIT_SaISL_EEPSK_INS1_10PcpArcInfoESaISP_EEEUlNS1_13SdfListOpTypeERKS8_E_E10_M_managerERSt9_Any_dataRKSY_St18_Manager_operation.exit: ; preds = %3, %6, %5, %4
  ret i1 false
}